Certificate:
    Data:
        Version: 1 (0x0)
        Serial Number: 1 (0x1)
    Signature Algorithm: sha512WithRSAEncryption
        Issuer: C=MK, O=UKIM, OU=FINKI, CN=SpiritBreakers
        Validity
            Not Before: May 14 11:07:45 2015 GMT
            Not After : May 13 11:07:45 2016 GMT
        Subject: C=MK, O=UKIM, OU=FINKI, CN=spiritbreakers.com.mk
        Subject Public Key Info:
            Public Key Algorithm: rsaEncryption
                Public-Key: (2048 bit)
                Modulus:
                    00:92:5f:cc:79:df:0f:e7:db:68:fc:95:ef:c5:5b:
                    c7:f7:d8:7a:b0:81:51:da:87:f6:1a:de:50:da:5c:
                    ad:5c:b4:91:c2:2b:3c:5b:84:fb:52:67:a1:7a:5f:
                    77:14:d0:6e:dc:76:cf:9f:b4:4c:61:7e:67:12:55:
                    85:fd:3d:53:61:33:1c:19:1d:70:c4:f2:ed:bb:68:
                    df:52:1e:d9:21:1e:6f:95:af:4a:c4:0b:d8:27:57:
                    7b:a1:4e:4c:ee:a4:3f:f0:0b:8a:aa:1a:54:24:56:
                    07:02:41:33:32:cd:57:77:85:48:48:b3:5d:b2:20:
                    6c:43:9c:e2:61:e0:0d:25:48:02:2f:75:4e:17:f0:
                    d3:5d:1c:d0:4f:19:8b:ef:40:c6:7d:58:a6:df:3c:
                    3e:0b:14:6a:3d:08:56:50:d3:28:24:eb:6d:06:cc:
                    44:25:43:fe:0d:50:e5:08:be:b5:3f:3b:d1:c7:a4:
                    a7:e1:7a:6d:fc:6f:98:84:17:75:5a:6a:7b:86:9a:
                    fc:7c:79:d2:43:05:28:44:af:89:67:61:58:08:80:
                    97:3d:4d:3a:12:26:29:a0:1c:e7:03:ef:e1:ff:9c:
                    01:f3:4c:eb:17:f6:74:53:5d:6d:d9:68:15:1d:2b:
                    f0:d0:54:d0:68:0b:90:37:dd:04:1c:34:0f:af:ab:
                    65:99
                Exponent: 65537 (0x10001)
    Signature Algorithm: sha512WithRSAEncryption
         26:7d:28:c7:b0:ba:82:64:79:a3:bd:69:af:a2:65:ae:09:87:
         be:9b:1f:fa:a5:71:c7:fd:20:01:dd:34:11:a6:1e:5d:56:e8:
         78:3a:43:f3:d5:69:02:a7:c1:ec:55:bf:43:b3:8d:4d:20:e5:
         45:6e:a8:b2:03:0a:c8:47:48:dc:c8:9e:1b:3c:77:14:bf:bf:
         3a:b9:5e:f9:79:87:c6:94:bc:47:fd:e3:55:25:59:fe:68:4d:
         43:65:4a:1a:2a:97:27:02:92:45:55:ce:b0:c8:49:68:bc:39:
         60:4f:2c:7f:9b:a3:91:74:0b:ad:2e:e0:8d:d7:08:29:0e:c4:
         2d:0a:a4:91:f0:2d:05:05:f6:f4:bd:a2:0b:90:bf:fb:cf:18:
         ee:94:8d:31:7f:c0:36:84:76:ff:72:37:f1:ba:5d:ea:ab:8e:
         a6:b4:25:95:92:bd:67:59:45:2d:56:7e:64:aa:3d:87:06:c1:
         0a:4e:7a:24:66:54:38:a9:52:27:4b:60:fe:20:07:3c:48:f6:
         fb:0c:04:4a:a1:c2:a1:bd:6e:bb:48:bb:66:86:e2:59:d0:b2:
         ca:f0:c2:86:78:61:5e:dc:e6:c2:04:d6:47:39:d0:79:99:3c:
         11:e3:9a:c7:38:af:bc:42:90:17:8a:21:fb:03:03:86:68:1f:
         7f:61:df:53
-----BEGIN CERTIFICATE-----
MIIDBTCCAe0CAQEwDQYJKoZIhvcNAQENBQAwRTELMAkGA1UEBhMCTUsxDTALBgNV
BAoMBFVLSU0xDjAMBgNVBAsMBUZJTktJMRcwFQYDVQQDDA5TcGlyaXRCcmVha2Vy
czAeFw0xNTA1MTQxMTA3NDVaFw0xNjA1MTMxMTA3NDVaMEwxCzAJBgNVBAYTAk1L
MQ0wCwYDVQQKDARVS0lNMQ4wDAYDVQQLDAVGSU5LSTEeMBwGA1UEAwwVc3Bpcml0
YnJlYWtlcnMuY29tLm1rMIIBIjANBgkqhkiG9w0BAQEFAAOCAQ8AMIIBCgKCAQEA
kl/Med8P59to/JXvxVvH99h6sIFR2of2Gt5Q2lytXLSRwis8W4T7Umehel93FNBu
3HbPn7RMYX5nElWF/T1TYTMcGR1wxPLtu2jfUh7ZIR5vla9KxAvYJ1d7oU5M7qQ/
8AuKqhpUJFYHAkEzMs1Xd4VISLNdsiBsQ5ziYeANJUgCL3VOF/DTXRzQTxmL70DG
fVim3zw+CxRqPQhWUNMoJOttBsxEJUP+DVDlCL61PzvRx6Sn4Xpt/G+YhBd1Wmp7
hpr8fHnSQwUoRK+JZ2FYCICXPU06EiYpoBznA+/h/5wB80zrF/Z0U11t2WgVHSvw
0FTQaAuQN90EHDQPr6tlmQIDAQABMA0GCSqGSIb3DQEBDQUAA4IBAQAmfSjHsLqC
ZHmjvWmvomWuCYe+mx/6pXHH/SAB3TQRph5dVuh4OkPz1WkCp8HsVb9Ds41NIOVF
bqiyAwrIR0jcyJ4bPHcUv786uV75eYfGlLxH/eNVJVn+aE1DZUoaKpcnApJFVc6w
yElovDlgTyx/m6ORdAutLuCN1wgpDsQtCqSR8C0FBfb0vaILkL/7zxjulI0xf8A2
hHb/cjfxul3qq46mtCWVkr1nWUUtVn5kqj2HBsEKTnokZlQ4qVInS2D+IAc8SPb7
DARKocKhvW67SLtmhuJZ0LLK8MKGeGFe3ObCBNZHOdB5mTwR45rHOK+8QpAXiiH7
AwOGaB9/Yd9T
-----END CERTIFICATE-----
